; Function Attrs: nounwind uwtable
define internal range(i32 0, 2) i32 @lzma_mf_converter(ptr noundef %0, ptr noundef writeonly captures(none) %1) #0 {
  %3 = tail call i64 @PyLong_AsUnsignedLongLong(ptr noundef %0) #10
  %4 = tail call ptr @PyErr_Occurred() #10
  %.not = icmp eq ptr %4, null
  br i1 %.not, label %5, label %10

5:                                                ; preds = %2
  %.not5 = icmp ult i64 %3, 4294967296
  br i1 %.not5, label %8, label %6

6:                                                ; preds = %5
  %7 = load ptr, ptr @PyExc_OverflowError, align 8, !tbaa !15
  tail call void @PyErr_SetString(ptr noundef %7, ptr noundef nonnull @.str.23) #10
  br label %10

8:                                                ; preds = %5
  %9 = trunc nuw i64 %3 to i32
  store i32 %9, ptr %1, align 4, !tbaa !19
  br label %10

10:                                               ; preds = %2, %8, %6
  %.0 = phi i32 [ 0, %6 ], [ 1, %8 ], [ 0, %2 ]
  ret i32 %.0
}